; ModuleID = '32/1929.c'
source_filename = "32/1929.c"
target datalayout = "e-m:e-p270:32:32-p271:32:32-p272:64:64-i64:64-f80:128-n8:16:32:64-S128"
target triple = "x86_64-pc-linux-gnu"

@.str = private unnamed_addr constant [4 x i8] c"%d\0A\00", align 1
@.str.1 = private unnamed_addr constant [2 x i8] c"\0A\00", align 1
@.str.2 = private unnamed_addr constant [2 x i8] c"0\00", align 1
@.str.3 = private unnamed_addr constant [3 x i8] c"%c\00", align 1

; Function Attrs: noinline nounwind uwtable
define dso_local i32 @main() #0 {
  %1 = alloca i32, align 4
  %2 = alloca [500 x i8], align 16
  %3 = alloca [500 x i8], align 16
  %4 = alloca [10 x [500 x i8]], align 16
  %5 = alloca i32, align 4
  %6 = alloca i32, align 4
  %7 = alloca i32, align 4
  %8 = alloca i32, align 4
  %9 = alloca i32, align 4
  store i32 0, i32* %1, align 4
  store i32 0, i32* %9, align 4
  %10 = call i32 (i8*, ...) @__isoc99_scanf(i8* getelementptr inbounds ([4 x i8], [4 x i8]* @.str, i64 0, i64 0), i32* %5)
  store i32 0, i32* %6, align 4
  br label %11

11:                                               ; preds = %120, %0
  %12 = load i32, i32* %6, align 4
  %13 = load i32, i32* %5, align 4
  %14 = icmp slt i32 %12, %13
  br i1 %14, label %15, label %123

15:                                               ; preds = %11
  %16 = getelementptr inbounds [500 x i8], [500 x i8]* %2, i64 0, i64 0
  %17 = call i32 (i8*, ...) bitcast (i32 (...)* @gets to i32 (i8*, ...)*)(i8* %16)
  %18 = getelementptr inbounds [500 x i8], [500 x i8]* %3, i64 0, i64 0
  %19 = call i32 (i8*, ...) bitcast (i32 (...)* @gets to i32 (i8*, ...)*)(i8* %18)
  %20 = getelementptr inbounds [500 x i8], [500 x i8]* %2, i64 0, i64 0
  %21 = call i64 @strlen(i8* %20) #4
  %22 = sub i64 %21, 1
  %23 = trunc i64 %22 to i32
  store i32 %23, i32* %8, align 4
  %24 = getelementptr inbounds [500 x i8], [500 x i8]* %3, i64 0, i64 0
  %25 = call i64 @strlen(i8* %24) #4
  %26 = sub i64 %25, 1
  %27 = trunc i64 %26 to i32
  store i32 %27, i32* %7, align 4
  br label %28

28:                                               ; preds = %102, %15
  %29 = load i32, i32* %7, align 4
  %30 = icmp sge i32 %29, 0
  br i1 %30, label %31, label %105

31:                                               ; preds = %28
  %32 = load i32, i32* %8, align 4
  %33 = sext i32 %32 to i64
  %34 = getelementptr inbounds [500 x i8], [500 x i8]* %2, i64 0, i64 %33
  %35 = load i8, i8* %34, align 1
  %36 = sext i8 %35 to i32
  %37 = load i32, i32* %7, align 4
  %38 = sext i32 %37 to i64
  %39 = getelementptr inbounds [500 x i8], [500 x i8]* %3, i64 0, i64 %38
  %40 = load i8, i8* %39, align 1
  %41 = sext i8 %40 to i32
  %42 = icmp sge i32 %36, %41
  br i1 %42, label %43, label %62

43:                                               ; preds = %31
  %44 = load i32, i32* %8, align 4
  %45 = sext i32 %44 to i64
  %46 = getelementptr inbounds [500 x i8], [500 x i8]* %2, i64 0, i64 %45
  %47 = load i8, i8* %46, align 1
  %48 = sext i8 %47 to i32
  %49 = load i32, i32* %7, align 4
  %50 = sext i32 %49 to i64
  %51 = getelementptr inbounds [500 x i8], [500 x i8]* %3, i64 0, i64 %50
  %52 = load i8, i8* %51, align 1
  %53 = sext i8 %52 to i32
  %54 = sub nsw i32 %48, %53
  %55 = add nsw i32 %54, 48
  %56 = trunc i32 %55 to i8
  %57 = load i32, i32* %8, align 4
  %58 = sext i32 %57 to i64
  %59 = getelementptr inbounds [500 x i8], [500 x i8]* %2, i64 0, i64 %58
  store i8 %56, i8* %59, align 1
  %60 = load i32, i32* %8, align 4
  %61 = add nsw i32 %60, -1
  store i32 %61, i32* %8, align 4
  br label %101

62:                                               ; preds = %31
  %63 = load i32, i32* %8, align 4
  %64 = sext i32 %63 to i64
  %65 = getelementptr inbounds [500 x i8], [500 x i8]* %2, i64 0, i64 %64
  %66 = load i8, i8* %65, align 1
  %67 = sext i8 %66 to i32
  %68 = load i32, i32* %7, align 4
  %69 = sext i32 %68 to i64
  %70 = getelementptr inbounds [500 x i8], [500 x i8]* %3, i64 0, i64 %69
  %71 = load i8, i8* %70, align 1
  %72 = sext i8 %71 to i32
  %73 = icmp slt i32 %67, %72
  br i1 %73, label %74, label %100

74:                                               ; preds = %62
  %75 = load i32, i32* %8, align 4
  %76 = sub nsw i32 %75, 1
  %77 = sext i32 %76 to i64
  %78 = getelementptr inbounds [500 x i8], [500 x i8]* %2, i64 0, i64 %77
  %79 = load i8, i8* %78, align 1
  %80 = add i8 %79, -1
  store i8 %80, i8* %78, align 1
  %81 = load i32, i32* %8, align 4
  %82 = sext i32 %81 to i64
  %83 = getelementptr inbounds [500 x i8], [500 x i8]* %2, i64 0, i64 %82
  %84 = load i8, i8* %83, align 1
  %85 = sext i8 %84 to i32
  %86 = add nsw i32 %85, 10
  %87 = load i32, i32* %7, align 4
  %88 = sext i32 %87 to i64
  %89 = getelementptr inbounds [500 x i8], [500 x i8]* %3, i64 0, i64 %88
  %90 = load i8, i8* %89, align 1
  %91 = sext i8 %90 to i32
  %92 = sub nsw i32 %86, %91
  %93 = add nsw i32 %92, 48
  %94 = trunc i32 %93 to i8
  %95 = load i32, i32* %8, align 4
  %96 = sext i32 %95 to i64
  %97 = getelementptr inbounds [500 x i8], [500 x i8]* %2, i64 0, i64 %96
  store i8 %94, i8* %97, align 1
  %98 = load i32, i32* %8, align 4
  %99 = add nsw i32 %98, -1
  store i32 %99, i32* %8, align 4
  br label %100

100:                                              ; preds = %74, %62
  br label %101

101:                                              ; preds = %100, %43
  br label %102

102:                                              ; preds = %101
  %103 = load i32, i32* %7, align 4
  %104 = add nsw i32 %103, -1
  store i32 %104, i32* %7, align 4
  br label %28

105:                                              ; preds = %28
  %106 = load i32, i32* %9, align 4
  %107 = add nsw i32 %106, 1
  store i32 %107, i32* %9, align 4
  %108 = sext i32 %106 to i64
  %109 = getelementptr inbounds [10 x [500 x i8]], [10 x [500 x i8]]* %4, i64 0, i64 %108
  %110 = getelementptr inbounds [500 x i8], [500 x i8]* %109, i64 0, i64 0
  %111 = getelementptr inbounds [500 x i8], [500 x i8]* %2, i64 0, i64 0
  %112 = call i8* @strcpy(i8* %110, i8* %111) #5
  %113 = load i32, i32* %6, align 4
  %114 = load i32, i32* %5, align 4
  %115 = sub nsw i32 %114, 1
  %116 = icmp ne i32 %113, %115
  br i1 %116, label %117, label %119

117:                                              ; preds = %105
  %118 = call i32 (i8*, ...) @__isoc99_scanf(i8* getelementptr inbounds ([2 x i8], [2 x i8]* @.str.1, i64 0, i64 0))
  br label %119

119:                                              ; preds = %117, %105
  br label %120

120:                                              ; preds = %119
  %121 = load i32, i32* %6, align 4
  %122 = add nsw i32 %121, 1
  store i32 %122, i32* %6, align 4
  br label %11

123:                                              ; preds = %11
  store i32 0, i32* %6, align 4
  br label %124

124:                                              ; preds = %194, %123
  %125 = load i32, i32* %6, align 4
  %126 = load i32, i32* %9, align 4
  %127 = icmp slt i32 %125, %126
  br i1 %127, label %128, label %197

128:                                              ; preds = %124
  store i32 0, i32* %7, align 4
  br label %129

129:                                              ; preds = %151, %128
  %130 = load i32, i32* %6, align 4
  %131 = sext i32 %130 to i64
  %132 = getelementptr inbounds [10 x [500 x i8]], [10 x [500 x i8]]* %4, i64 0, i64 %131
  %133 = load i32, i32* %7, align 4
  %134 = sext i32 %133 to i64
  %135 = getelementptr inbounds [500 x i8], [500 x i8]* %132, i64 0, i64 %134
  %136 = load i8, i8* %135, align 1
  %137 = sext i8 %136 to i32
  %138 = icmp ne i32 %137, 0
  br i1 %138, label %139, label %154

139:                                              ; preds = %129
  %140 = load i32, i32* %6, align 4
  %141 = sext i32 %140 to i64
  %142 = getelementptr inbounds [10 x [500 x i8]], [10 x [500 x i8]]* %4, i64 0, i64 %141
  %143 = load i32, i32* %7, align 4
  %144 = sext i32 %143 to i64
  %145 = getelementptr inbounds [500 x i8], [500 x i8]* %142, i64 0, i64 %144
  %146 = load i8, i8* %145, align 1
  %147 = sext i8 %146 to i32
  %148 = icmp ne i32 %147, 48
  br i1 %148, label %149, label %150

149:                                              ; preds = %139
  br label %154

150:                                              ; preds = %139
  br label %151

151:                                              ; preds = %150
  %152 = load i32, i32* %7, align 4
  %153 = add nsw i32 %152, 1
  store i32 %153, i32* %7, align 4
  br label %129

154:                                              ; preds = %149, %129
  %155 = load i32, i32* %6, align 4
  %156 = sext i32 %155 to i64
  %157 = getelementptr inbounds [10 x [500 x i8]], [10 x [500 x i8]]* %4, i64 0, i64 %156
  %158 = load i32, i32* %7, align 4
  %159 = sext i32 %158 to i64
  %160 = getelementptr inbounds [500 x i8], [500 x i8]* %157, i64 0, i64 %159
  %161 = load i8, i8* %160, align 1
  %162 = sext i8 %161 to i32
  %163 = icmp eq i32 %162, 0
  br i1 %163, label %164, label %166

164:                                              ; preds = %154
  %165 = call i32 (i8*, ...) @printf(i8* getelementptr inbounds ([2 x i8], [2 x i8]* @.str.2, i64 0, i64 0))
  br label %192

166:                                              ; preds = %154
  %167 = load i32, i32* %7, align 4
  store i32 %167, i32* %8, align 4
  br label %168

168:                                              ; preds = %188, %166
  %169 = load i32, i32* %6, align 4
  %170 = sext i32 %169 to i64
  %171 = getelementptr inbounds [10 x [500 x i8]], [10 x [500 x i8]]* %4, i64 0, i64 %170
  %172 = load i32, i32* %8, align 4
  %173 = sext i32 %172 to i64
  %174 = getelementptr inbounds [500 x i8], [500 x i8]* %171, i64 0, i64 %173
  %175 = load i8, i8* %174, align 1
  %176 = sext i8 %175 to i32
  %177 = icmp ne i32 %176, 0
  br i1 %177, label %178, label %191

178:                                              ; preds = %168
  %179 = load i32, i32* %6, align 4
  %180 = sext i32 %179 to i64
  %181 = getelementptr inbounds [10 x [500 x i8]], [10 x [500 x i8]]* %4, i64 0, i64 %180
  %182 = load i32, i32* %8, align 4
  %183 = sext i32 %182 to i64
  %184 = getelementptr inbounds [500 x i8], [500 x i8]* %181, i64 0, i64 %183
  %185 = load i8, i8* %184, align 1
  %186 = sext i8 %185 to i32
  %187 = call i32 (i8*, ...) @printf(i8* getelementptr inbounds ([3 x i8], [3 x i8]* @.str.3, i64 0, i64 0), i32 %186)
  br label %188

188:                                              ; preds = %178
  %189 = load i32, i32* %8, align 4
  %190 = add nsw i32 %189, 1
  store i32 %190, i32* %8, align 4
  br label %168

191:                                              ; preds = %168
  br label %192

192:                                              ; preds = %191, %164
  %193 = call i32 (i8*, ...) @printf(i8* getelementptr inbounds ([2 x i8], [2 x i8]* @.str.1, i64 0, i64 0))
  br label %194

194:                                              ; preds = %192
  %195 = load i32, i32* %6, align 4
  %196 = add nsw i32 %195, 1
  store i32 %196, i32* %6, align 4
  br label %124

197:                                              ; preds = %124
  %198 = load i32, i32* %1, align 4
  ret i32 %198
}

declare dso_local i32 @__isoc99_scanf(i8*, ...) #1

declare dso_local i32 @gets(...) #1

; Function Attrs: nounwind readonly
declare dso_local i64 @strlen(i8*) #2

; Function Attrs: nounwind
declare dso_local i8* @strcpy(i8*, i8*) #3

declare dso_local i32 @printf(i8*, ...) #1


!llvm.module.flags = !{!0}
!llvm.ident = !{!1}

!0 = !{i32 1, !"wchar_size", i32 4}
!1 = !{!"clang version 10.0.0-4ubuntu1 "}
